target datalayout = "e-m:e-p270:32:32-p271:32:32-p272:64:64-i64:64-i128:128-f80:128-n8:16:32:64-S128"
target triple = "x86_64-pc-linux-gnu"

; Function Attrs: nounwind uwtable
define hidden void @WebPSamplerProcessPlane(ptr noalias noundef %0, i32 noundef %1, ptr noalias noundef %2, ptr noalias noundef %3, i32 noundef %4, ptr noalias noundef %5, i32 noundef %6, i32 noundef %7, i32 noundef %8, ptr noundef %9) #0 {
  %11 = alloca ptr, align 8
  %12 = alloca i32, align 4
  %13 = alloca ptr, align 8
  %14 = alloca ptr, align 8
  %15 = alloca i32, align 4
  %16 = alloca ptr, align 8
  %17 = alloca i32, align 4
  %18 = alloca i32, align 4
  %19 = alloca i32, align 4
  %20 = alloca ptr, align 8
  %21 = alloca i32, align 4
  store ptr %0, ptr %11, align 8, !tbaa !3
  store i32 %1, ptr %12, align 4, !tbaa !8
  store ptr %2, ptr %13, align 8, !tbaa !3
  store ptr %3, ptr %14, align 8, !tbaa !3
  store i32 %4, ptr %15, align 4, !tbaa !8
  store ptr %5, ptr %16, align 8, !tbaa !3
  store i32 %6, ptr %17, align 4, !tbaa !8
  store i32 %7, ptr %18, align 4, !tbaa !8
  store i32 %8, ptr %19, align 4, !tbaa !8
  store ptr %9, ptr %20, align 8, !tbaa !10
  call void @llvm.lifetime.start.p0(i64 4, ptr %21) #5
  store i32 0, ptr %21, align 4, !tbaa !8
  br label %22

22:                                               ; preds = %54, %10
  %23 = load i32, ptr %21, align 4, !tbaa !8
  %24 = load i32, ptr %19, align 4, !tbaa !8
  %25 = icmp slt i32 %23, %24
  br i1 %25, label %26, label %57

26:                                               ; preds = %22
  %27 = load ptr, ptr %20, align 8, !tbaa !10
  %28 = load ptr, ptr %11, align 8, !tbaa !3
  %29 = load ptr, ptr %13, align 8, !tbaa !3
  %30 = load ptr, ptr %14, align 8, !tbaa !3
  %31 = load ptr, ptr %16, align 8, !tbaa !3
  %32 = load i32, ptr %18, align 4, !tbaa !8
  call void %27(ptr noundef %28, ptr noundef %29, ptr noundef %30, ptr noundef %31, i32 noundef %32)
  %33 = load i32, ptr %12, align 4, !tbaa !8
  %34 = load ptr, ptr %11, align 8, !tbaa !3
  %35 = sext i32 %33 to i64
  %36 = getelementptr inbounds i8, ptr %34, i64 %35
  store ptr %36, ptr %11, align 8, !tbaa !3
  %37 = load i32, ptr %21, align 4, !tbaa !8
  %38 = and i32 %37, 1
  %39 = icmp ne i32 %38, 0
  br i1 %39, label %40, label %49

40:                                               ; preds = %26
  %41 = load i32, ptr %15, align 4, !tbaa !8
  %42 = load ptr, ptr %13, align 8, !tbaa !3
  %43 = sext i32 %41 to i64
  %44 = getelementptr inbounds i8, ptr %42, i64 %43
  store ptr %44, ptr %13, align 8, !tbaa !3
  %45 = load i32, ptr %15, align 4, !tbaa !8
  %46 = load ptr, ptr %14, align 8, !tbaa !3
  %47 = sext i32 %45 to i64
  %48 = getelementptr inbounds i8, ptr %46, i64 %47
  store ptr %48, ptr %14, align 8, !tbaa !3
  br label %49

49:                                               ; preds = %40, %26
  %50 = load i32, ptr %17, align 4, !tbaa !8
  %51 = load ptr, ptr %16, align 8, !tbaa !3
  %52 = sext i32 %50 to i64
  %53 = getelementptr inbounds i8, ptr %51, i64 %52
  store ptr %53, ptr %16, align 8, !tbaa !3
  br label %54

54:                                               ; preds = %49
  %55 = load i32, ptr %21, align 4, !tbaa !8
  %56 = add nsw i32 %55, 1
  store i32 %56, ptr %21, align 4, !tbaa !8
  br label %22, !llvm.loop !11

57:                                               ; preds = %22
  call void @llvm.lifetime.end.p0(i64 4, ptr %21) #5
  ret void
}