; Function Attrs: nounwind uwtable
define hidden void @WebPSamplerProcessPlane(ptr noalias noundef %0, i32 noundef %1, ptr noalias noundef %2, ptr noalias noundef %3, i32 noundef %4, ptr noalias noundef %5, i32 noundef %6, i32 noundef %7, i32 noundef %8, ptr noundef readonly captures(none) %9) local_unnamed_addr #0 {
  %11 = icmp sgt i32 %8, 0
  br i1 %11, label %.lr.ph, label %._crit_edge

.lr.ph:                                           ; preds = %10
  %12 = sext i32 %1 to i64
  %13 = sext i32 %6 to i64
  br label %14

14:                                               ; preds = %.lr.ph, %14
  %.026 = phi i32 [ 0, %.lr.ph ], [ %18, %14 ]
  %.01725 = phi ptr [ %0, %.lr.ph ], [ %15, %14 ]
  %.01824 = phi ptr [ %2, %.lr.ph ], [ %.1, %14 ]
  %.01923 = phi ptr [ %3, %.lr.ph ], [ %.120, %14 ]
  %.02122 = phi ptr [ %5, %.lr.ph ], [ %17, %14 ]
  tail call void %9(ptr noundef %.01725, ptr noundef %.01824, ptr noundef %.01923, ptr noundef %.02122, i32 noundef %7) #5
  %15 = getelementptr inbounds i8, ptr %.01725, i64 %12
  %16 = and i32 %.026, 1
  %.not = icmp eq i32 %16, 0
  %narrow = select i1 %.not, i32 0, i32 %4
  %.120.idx = sext i32 %narrow to i64
  %.120 = getelementptr inbounds i8, ptr %.01923, i64 %.120.idx
  %.1 = getelementptr inbounds i8, ptr %.01824, i64 %.120.idx
  %17 = getelementptr inbounds i8, ptr %.02122, i64 %13
  %18 = add nuw nsw i32 %.026, 1
  %exitcond.not = icmp eq i32 %18, %8
  br i1 %exitcond.not, label %._crit_edge, label %14, !llvm.loop !3

._crit_edge:                                      ; preds = %14, %10
  ret void
}